; Function Attrs: nounwind uwtable
define internal fastcc void @make_one_button_checked(ptr noundef %0, i32 noundef %1) unnamed_addr #0 {
  %3 = getelementptr inbounds nuw i8, ptr %0, i64 88
  %4 = load i32, ptr %3, align 8, !tbaa !3
  %.not.i = icmp ult i32 %1, %4
  br i1 %.not.i, label %lv_buttonmatrix_has_button_ctrl.exit.thread, label %lv_buttonmatrix_has_button_ctrl.exit

lv_buttonmatrix_has_button_ctrl.exit.thread:      ; preds = %2
  %5 = getelementptr inbounds nuw i8, ptr %0, i64 80
  %6 = load ptr, ptr %5, align 8, !tbaa !15
  %7 = zext i32 %1 to i64
  %8 = getelementptr inbounds nuw i32, ptr %6, i64 %7
  %9 = load i32, ptr %8, align 4, !tbaa !21
  %10 = and i32 %9, 256
  %11 = icmp ne i32 %10, 0
  br label %.lr.ph.i

lv_buttonmatrix_has_button_ctrl.exit:             ; preds = %2
  %.not.i5 = icmp eq i32 %4, 0
  br i1 %.not.i5, label %lv_buttonmatrix_set_button_ctrl.exit, label %.lr.ph.i

.lr.ph.i:                                         ; preds = %lv_buttonmatrix_has_button_ctrl.exit.thread, %lv_buttonmatrix_has_button_ctrl.exit
  %.0.i9 = phi i1 [ %11, %lv_buttonmatrix_has_button_ctrl.exit.thread ], [ false, %lv_buttonmatrix_has_button_ctrl.exit ]
  %12 = getelementptr inbounds nuw i8, ptr %0, i64 80
  br label %lv_buttonmatrix_clear_button_ctrl.exit.us.i

lv_buttonmatrix_clear_button_ctrl.exit.us.i:      ; preds = %lv_buttonmatrix_clear_button_ctrl.exit.us.i, %.lr.ph.i
  %indvars.iv9.i = phi i64 [ %indvars.iv.next10.i, %lv_buttonmatrix_clear_button_ctrl.exit.us.i ], [ 0, %.lr.ph.i ]
  %13 = load ptr, ptr %12, align 8, !tbaa !15
  %14 = getelementptr inbounds nuw i32, ptr %13, i64 %indvars.iv9.i
  %15 = load i32, ptr %14, align 4, !tbaa !21
  %16 = and i32 %15, -257
  store i32 %16, ptr %14, align 4, !tbaa !21
  %17 = trunc nuw i64 %indvars.iv9.i to i32
  tail call fastcc void @invalidate_button_area(ptr noundef nonnull %0, i32 noundef %17)
  %indvars.iv.next10.i = add nuw nsw i64 %indvars.iv9.i, 1
  %18 = load i32, ptr %3, align 8, !tbaa !3
  %19 = zext i32 %18 to i64
  %20 = icmp samesign ult i64 %indvars.iv.next10.i, %19
  br i1 %20, label %lv_buttonmatrix_clear_button_ctrl.exit.us.i, label %lv_buttonmatrix_clear_button_ctrl_all.exit, !llvm.loop !38

lv_buttonmatrix_clear_button_ctrl_all.exit:       ; preds = %lv_buttonmatrix_clear_button_ctrl.exit.us.i
  %.not.i6 = icmp ult i32 %1, %18
  %or.cond = and i1 %.0.i9, %.not.i6
  br i1 %or.cond, label %21, label %lv_buttonmatrix_set_button_ctrl.exit

21:                                               ; preds = %lv_buttonmatrix_clear_button_ctrl_all.exit
  %22 = getelementptr inbounds nuw i8, ptr %0, i64 100
  %23 = load i8, ptr %22, align 4
  %24 = and i8 %23, 1
  %.not12.i = icmp eq i8 %24, 0
  br i1 %.not12.i, label %lv_buttonmatrix_clear_button_ctrl_all.exit.i, label %lv_buttonmatrix_clear_button_ctrl.exit.us.i.i

lv_buttonmatrix_clear_button_ctrl.exit.us.i.i:    ; preds = %21, %lv_buttonmatrix_clear_button_ctrl.exit.us.i.i
  %indvars.iv9.i.i = phi i64 [ %indvars.iv.next10.i.i, %lv_buttonmatrix_clear_button_ctrl.exit.us.i.i ], [ 0, %21 ]
  %25 = load ptr, ptr %12, align 8, !tbaa !15
  %26 = getelementptr inbounds nuw i32, ptr %25, i64 %indvars.iv9.i.i
  %27 = load i32, ptr %26, align 4, !tbaa !21
  %28 = and i32 %27, -257
  store i32 %28, ptr %26, align 4, !tbaa !21
  %29 = trunc nuw i64 %indvars.iv9.i.i to i32
  tail call fastcc void @invalidate_button_area(ptr noundef nonnull %0, i32 noundef %29)
  %indvars.iv.next10.i.i = add nuw nsw i64 %indvars.iv9.i.i, 1
  %30 = load i32, ptr %3, align 8, !tbaa !3
  %31 = zext i32 %30 to i64
  %32 = icmp samesign ult i64 %indvars.iv.next10.i.i, %31
  br i1 %32, label %lv_buttonmatrix_clear_button_ctrl.exit.us.i.i, label %lv_buttonmatrix_clear_button_ctrl_all.exit.i, !llvm.loop !38

lv_buttonmatrix_clear_button_ctrl_all.exit.i:     ; preds = %lv_buttonmatrix_clear_button_ctrl.exit.us.i.i, %21
  %33 = load ptr, ptr %12, align 8, !tbaa !15
  %34 = zext i32 %1 to i64
  %35 = getelementptr inbounds nuw i32, ptr %33, i64 %34
  %36 = load i32, ptr %35, align 4, !tbaa !21
  %37 = or i32 %36, 256
  store i32 %37, ptr %35, align 4, !tbaa !21
  tail call fastcc void @invalidate_button_area(ptr noundef nonnull %0, i32 noundef %1)
  br label %lv_buttonmatrix_set_button_ctrl.exit

lv_buttonmatrix_set_button_ctrl.exit:             ; preds = %lv_buttonmatrix_has_button_ctrl.exit, %lv_buttonmatrix_clear_button_ctrl_all.exit.i, %lv_buttonmatrix_clear_button_ctrl_all.exit
  ret void
}